; Function Attrs: mustprogress nounwind uwtable
define dso_local void @_ZN5clang16ObjCArrayLiteralC2EN4llvm8ArrayRefIPNS_4ExprEEENS_8QualTypeEPNS_14ObjCMethodDeclENS_11SourceRangeE(ptr noundef nonnull align 8 dereferenceable(40) %0, ptr nocapture readonly %1, i64 %2, i64 %3, ptr noundef %4, i64 %5) unnamed_addr #0 align 2 {
  store i8 42, ptr %0, align 8
  %7 = load i8, ptr @_ZN5clang4Stmt17StatisticsEnabledE, align 1
  %8 = trunc i8 %7 to i1
  br i1 %8, label %9, label %_ZN5clang4ExprC2ENS_4Stmt9StmtClassENS_8QualTypeENS_13ExprValueKindENS_14ExprObjectKindE.exit

9:                                                ; preds = %6
  tail call void @_ZN5clang4Stmt12addStmtClassENS0_9StmtClassE(i32 noundef 42) #13
  br label %_ZN5clang4ExprC2ENS_4Stmt9StmtClassENS_8QualTypeENS_13ExprValueKindENS_14ExprObjectKindE.exit

_ZN5clang4ExprC2ENS_4Stmt9StmtClassENS_8QualTypeENS_13ExprValueKindENS_14ExprObjectKindE.exit: ; preds = %6, %9
  %10 = getelementptr inbounds nuw i8, ptr %0, i64 8
  %11 = getelementptr inbounds nuw i8, ptr %0, i64 1
  %12 = load i16, ptr %11, align 1
  %13 = and i16 %12, -1024
  store i16 %13, ptr %11, align 1
  store i64 %3, ptr %10, align 8
  %14 = getelementptr inbounds nuw i8, ptr %0, i64 16
  %15 = trunc i64 %2 to i32
  store i32 %15, ptr %14, align 8
  %16 = getelementptr inbounds nuw i8, ptr %0, i64 20
  store i64 %5, ptr %16, align 4
  %17 = getelementptr inbounds nuw i8, ptr %0, i64 32
  store ptr %4, ptr %17, align 8
  %18 = getelementptr inbounds i8, ptr %0, i64 40
  %.not10 = icmp eq i32 %15, 0
  br i1 %.not10, label %._crit_edge, label %.lr.ph.preheader

.lr.ph.preheader:                                 ; preds = %_ZN5clang4ExprC2ENS_4Stmt9StmtClassENS_8QualTypeENS_13ExprValueKindENS_14ExprObjectKindE.exit
  %19 = and i64 %2, 4294967295
  br label %.lr.ph

.lr.ph:                                           ; preds = %.lr.ph.preheader, %.lr.ph
  %indvars.iv = phi i64 [ 0, %.lr.ph.preheader ], [ %indvars.iv.next, %.lr.ph ]
  %20 = getelementptr inbounds ptr, ptr %1, i64 %indvars.iv
  %21 = load ptr, ptr %20, align 8
  %22 = getelementptr inbounds ptr, ptr %18, i64 %indvars.iv
  store ptr %21, ptr %22, align 8
  %indvars.iv.next = add nuw nsw i64 %indvars.iv, 1
  %.not = icmp eq i64 %indvars.iv.next, %19
  br i1 %.not, label %._crit_edge, label %.lr.ph, !llvm.loop !4

._crit_edge:                                      ; preds = %.lr.ph, %_ZN5clang4ExprC2ENS_4Stmt9StmtClassENS_8QualTypeENS_13ExprValueKindENS_14ExprObjectKindE.exit
  %23 = tail call noundef zeroext i8 @_ZN5clang17computeDependenceEPNS_16ObjCArrayLiteralE(ptr noundef nonnull %0) #13
  %24 = load i16, ptr %11, align 1
  %25 = and i8 %23, 31
  %26 = zext nneg i8 %25 to i16
  %27 = shl nuw nsw i16 %26, 5
  %28 = and i16 %24, -993
  %29 = or disjoint i16 %27, %28
  store i16 %29, ptr %11, align 1
  ret void
}